; Function Attrs: nounwind uwtable
define dso_local void @set_msg_node_id(ptr noundef readonly captures(none) %0) local_unnamed_addr #0 {
  %2 = getelementptr inbounds nuw i8, ptr %0, i64 280
  %3 = load ptr, ptr %2, align 8
  %4 = tail call ptr @getenvp(ptr noundef %3, ptr noundef nonnull @.str.6) #13
  %.not = icmp eq ptr %4, null
  br i1 %.not, label %8, label %5

5:                                                ; preds = %1
  %6 = tail call i64 @strtol(ptr noundef nonnull captures(none) %4, ptr noundef null, i32 noundef 10) #13
  %7 = trunc i64 %6 to i32
  store i32 %7, ptr @msg_target_node_id, align 4
  br label %8

8:                                                ; preds = %5, %1
  ret void
}